(dp0
S'problem_data'
p1
(dp2
sS'num_eqn'
p3
I1
sS'write_aux'
p4
I00
sS't'
p5
cnumpy.core.multiarray
scalar
p6
(cnumpy
dtype
p7
(S'f8'
p8
I0
I1
tp9
Rp10
(I3
S'<'
p11
NNNI-1
I-1
I0
tp12
bS'r\x1c\xc7q\x1c\xc7\xe1?'
p13
tp14
Rp15
sS'mapc2p'
p16
cclawpack.pyclaw.geometry
default_mapc2p
p17
sS'num_dim'
p18
I1
sS'nstates'
p19
I1
sS'num_aux'
p20
I1
s.